target datalayout = "e-m:e-p270:32:32-p271:32:32-p272:64:64-i64:64-i128:128-f80:128-n8:16:32:64-S128"
target triple = "x86_64-pc-linux-gnu"

%struct.wtap = type { ptr, ptr, i8, i32, i32, ptr, ptr, ptr, i32, ptr, ptr, ptr, ptr, ptr, ptr, ptr, ptr, ptr, ptr, i32, i32, ptr, ptr, ptr, ptr }
%struct.wtap_reader = type { i32, i64, i64, i32, %struct.wtap_reader_buf, %struct.wtap_reader_buf, i8, i64, i64, i32, i32, i8, i64, i8, i32, ptr, %struct.z_stream_s, i8, ptr, ptr, %struct.LZ4F_frameInfo_t, [19 x i8], ptr, ptr }
%struct.wtap_reader_buf = type { ptr, ptr, i32 }
%struct.z_stream_s = type { ptr, i32, i64, ptr, i32, i64, ptr, ptr, ptr, ptr, ptr, i32, i64, i64 }
%struct.LZ4F_frameInfo_t = type { i32, i32, i32, i32, i64, i32, i32 }

@.str.2 = private unnamed_addr constant [8 x i8] c"Wiretap\00", align 1
@.str.3 = private unnamed_addr constant [24 x i8] c"wiretap/file_wrappers.c\00", align 1
@.str.4 = private unnamed_addr constant [31 x i8] c"assertion \22not reached\22 failed\00", align 1
@__func__.file_get_compression_type = private unnamed_addr constant [26 x i8] c"file_get_compression_type\00", align 1

; Function Attrs: null_pointer_is_valid sspstrong uwtable
define internal i32 @file_get_compression_type(ptr noundef %0) #0 {
  %2 = alloca i32, align 4
  %3 = alloca ptr, align 8
  store ptr %0, ptr %3, align 8
  %4 = load ptr, ptr %3, align 8
  %5 = getelementptr inbounds nuw %struct.wtap_reader, ptr %4, i32 0, i32 11
  %6 = load i8, ptr %5, align 8, !range !9, !noundef !10
  %7 = trunc i8 %6 to i1
  br i1 %7, label %8, label %28

8:                                                ; preds = %1
  %9 = load ptr, ptr %3, align 8
  %10 = getelementptr inbounds nuw %struct.wtap_reader, ptr %9, i32 0, i32 9
  %11 = load i32, ptr %10, align 8
  %12 = icmp eq i32 %11, 0
  br i1 %12, label %13, label %17

13:                                               ; preds = %8
  %14 = load ptr, ptr %3, align 8
  %15 = getelementptr inbounds nuw %struct.wtap_reader, ptr %14, i32 0, i32 10
  %16 = load i32, ptr %15, align 4
  br label %21

17:                                               ; preds = %8
  %18 = load ptr, ptr %3, align 8
  %19 = getelementptr inbounds nuw %struct.wtap_reader, ptr %18, i32 0, i32 9
  %20 = load i32, ptr %19, align 8
  br label %21

21:                                               ; preds = %17, %13
  %22 = phi i32 [ %16, %13 ], [ %20, %17 ]
  switch i32 %22, label %27 [
    i32 2, label %23
    i32 3, label %23
    i32 4, label %24
    i32 5, label %25
    i32 6, label %25
    i32 1, label %26
  ]

23:                                               ; preds = %21, %21
  store i32 1, ptr %2, align 4
  br label %29

24:                                               ; preds = %21
  store i32 2, ptr %2, align 4
  br label %29

25:                                               ; preds = %21, %21
  store i32 3, ptr %2, align 4
  br label %29

26:                                               ; preds = %21
  store i32 0, ptr %2, align 4
  br label %29

27:                                               ; preds = %21
  call void (ptr, i32, ptr, i64, ptr, ptr, ...) @ws_log_fatal_full(ptr noundef @.str.2, i32 noundef 7, ptr noundef @.str.3, i64 noundef 2280, ptr noundef @__func__.file_get_compression_type, ptr noundef @.str.4) #15
  unreachable

28:                                               ; preds = %1
  store i32 0, ptr %2, align 4
  br label %29

29:                                               ; preds = %28, %26, %25, %24, %23
  %30 = load i32, ptr %2, align 4
  ret i32 %30
}

; Function Attrs: null_pointer_is_valid sspstrong uwtable
define i32 @wtap_get_compression_type(ptr noundef %0) #0 {
  %2 = alloca ptr, align 8
  store ptr %0, ptr %2, align 8
  %3 = load ptr, ptr %2, align 8
  %4 = getelementptr inbounds nuw %struct.wtap, ptr %3, i32 0, i32 0
  %5 = load ptr, ptr %4, align 8
  %6 = icmp eq ptr %5, null
  br i1 %6, label %7, label %11

7:                                                ; preds = %1
  %8 = load ptr, ptr %2, align 8
  %9 = getelementptr inbounds nuw %struct.wtap, ptr %8, i32 0, i32 1
  %10 = load ptr, ptr %9, align 8
  br label %15

11:                                               ; preds = %1
  %12 = load ptr, ptr %2, align 8
  %13 = getelementptr inbounds nuw %struct.wtap, ptr %12, i32 0, i32 0
  %14 = load ptr, ptr %13, align 8
  br label %15

15:                                               ; preds = %11, %7
  %16 = phi ptr [ %10, %7 ], [ %14, %11 ]
  %17 = call i32 @file_get_compression_type(ptr noundef %16)
  ret i32 %17
}