; Function Attrs: null_pointer_is_valid sspstrong uwtable
define range(i32 0, 4) i32 @wtap_get_compression_type(ptr noundef readonly captures(none) %0) local_unnamed_addr #0 {
  %2 = load ptr, ptr %0, align 8
  %3 = icmp eq ptr %2, null
  br i1 %3, label %4, label %7

4:                                                ; preds = %1
  %5 = getelementptr inbounds nuw i8, ptr %0, i64 8
  %6 = load ptr, ptr %5, align 8
  br label %7

7:                                                ; preds = %1, %4
  %8 = phi ptr [ %6, %4 ], [ %2, %1 ]
  %9 = getelementptr inbounds nuw i8, ptr %8, i64 112
  %10 = load i8, ptr %9, align 8, !range !9, !noundef !10
  %11 = trunc nuw i8 %10 to i1
  br i1 %11, label %12, label %file_get_compression_type.exit

12:                                               ; preds = %7
  %13 = getelementptr inbounds nuw i8, ptr %8, i64 104
  %14 = load i32, ptr %13, align 8
  %15 = icmp eq i32 %14, 0
  br i1 %15, label %16, label %19

16:                                               ; preds = %12
  %17 = getelementptr inbounds nuw i8, ptr %8, i64 108
  %18 = load i32, ptr %17, align 4
  br label %19

19:                                               ; preds = %16, %12
  %20 = phi i32 [ %18, %16 ], [ %14, %12 ]
  %switch.tableidx = add i32 %20, -1
  %21 = icmp ult i32 %switch.tableidx, 6
  br i1 %21, label %switch.lookup, label %22

22:                                               ; preds = %19
  tail call void (ptr, i32, ptr, i64, ptr, ptr, ...) @ws_log_fatal_full(ptr noundef nonnull @.str.2, i32 noundef 7, ptr noundef nonnull @.str.3, i64 noundef 2280, ptr noundef nonnull @__func__.file_get_compression_type, ptr noundef nonnull @.str.4) #20
  unreachable

switch.lookup:                                    ; preds = %19
  %23 = zext nneg i32 %switch.tableidx to i64
  %switch.gep = getelementptr inbounds nuw [6 x i32], ptr @switch.table.wtap_get_compression_type, i64 0, i64 %23
  %switch.load = load i32, ptr %switch.gep, align 4
  br label %file_get_compression_type.exit

file_get_compression_type.exit:                   ; preds = %switch.lookup, %7
  %.0.i = phi i32 [ 0, %7 ], [ %switch.load, %switch.lookup ]
  ret i32 %.0.i
}